; Function Attrs: mustprogress null_pointer_is_valid sspstrong uwtable
define void @_ZN18TapParameterDialog21filterActionTriggeredEv(ptr noundef align 8 dereferenceable_or_null(232) %0) local_unnamed_addr #3 align 2 personality ptr @__gxx_personality_v0 {
  %2 = alloca %class.QString, align 8
  %3 = alloca %class.QString, align 8
  %4 = tail call noundef ptr @_ZNK7QObject6senderEv(ptr noundef align 8 dereferenceable_or_null(16) %0)
  %5 = tail call noundef ptr @_ZNK11QMetaObject4castEPK7QObject(ptr noundef nonnull align 8 dereferenceable_or_null(56) @_ZN12FilterAction16staticMetaObjectE, ptr noundef %4)
  call void @llvm.lifetime.start.p0(i64 24, ptr nonnull %2) #31
  %6 = load ptr, ptr %0, align 8
  %7 = getelementptr inbounds nuw i8, ptr %6, i64 496
  %8 = load ptr, ptr %7, align 8
  call void %8(ptr dead_on_unwind nonnull writable sret(%class.QString) align 8 %2, ptr noundef align 8 dereferenceable_or_null(232) %0)
  %.not = icmp eq ptr %5, null
  br i1 %.not, label %_ZN7QStringD2Ev.exit, label %9

9:                                                ; preds = %1
  %10 = getelementptr inbounds nuw i8, ptr %2, i64 16
  %11 = load i64, ptr %10, align 8
  %12 = icmp eq i64 %11, 0
  br i1 %12, label %_ZN7QStringD2Ev.exit, label %13

13:                                               ; preds = %9
  %14 = load ptr, ptr %2, align 8
  store ptr %14, ptr %3, align 8
  %15 = getelementptr inbounds nuw i8, ptr %3, i64 8
  %16 = getelementptr inbounds nuw i8, ptr %2, i64 8
  %17 = load ptr, ptr %16, align 8
  store ptr %17, ptr %15, align 8
  %18 = getelementptr inbounds nuw i8, ptr %3, i64 16
  store i64 %11, ptr %18, align 8
  %.not.i.i.i = icmp eq ptr %14, null
  br i1 %.not.i.i.i, label %_ZN7QStringC2ERKS_.exit, label %19

19:                                               ; preds = %13
  %20 = atomicrmw add ptr %14, i32 1 seq_cst, align 4
  br label %_ZN7QStringC2ERKS_.exit

_ZN7QStringC2ERKS_.exit:                          ; preds = %13, %19
  %21 = getelementptr inbounds nuw i8, ptr %5, i64 16
  %22 = load i32, ptr %21, align 8
  %23 = getelementptr inbounds nuw i8, ptr %5, i64 20
  %24 = load i32, ptr %23, align 4
  invoke void @_ZN18TapParameterDialog12filterActionE7QStringN12FilterAction6ActionENS1_10ActionTypeE(ptr noundef align 8 dereferenceable_or_null(232) %0, ptr noundef nonnull %3, i32 noundef %22, i32 noundef %24)
          to label %25 unwind label %34

25:                                               ; preds = %_ZN7QStringC2ERKS_.exit
  %26 = load ptr, ptr %3, align 8
  %.not.i.i.i5 = icmp eq ptr %26, null
  br i1 %.not.i.i.i5, label %_ZN7QStringD2Ev.exit, label %_ZN17QArrayDataPointerIDsE5derefEv.exit.i.i

_ZN17QArrayDataPointerIDsE5derefEv.exit.i.i:      ; preds = %25
  %27 = atomicrmw sub ptr %26, i32 1 seq_cst, align 4
  %.not.i.i = icmp eq i32 %27, 1
  br i1 %.not.i.i, label %28, label %_ZN7QStringD2Ev.exit

28:                                               ; preds = %_ZN17QArrayDataPointerIDsE5derefEv.exit.i.i
  %29 = load ptr, ptr %3, align 8
  call void @_ZN10QArrayData10deallocateEPS_xx(ptr noundef %29, i64 noundef 2, i64 noundef 8) #31
  br label %_ZN7QStringD2Ev.exit

_ZN7QStringD2Ev.exit:                             ; preds = %28, %_ZN17QArrayDataPointerIDsE5derefEv.exit.i.i, %25, %1, %9
  %30 = load ptr, ptr %2, align 8
  %.not.i.i.i6 = icmp eq ptr %30, null
  br i1 %.not.i.i.i6, label %_ZN7QStringD2Ev.exit9, label %_ZN17QArrayDataPointerIDsE5derefEv.exit.i.i7

_ZN17QArrayDataPointerIDsE5derefEv.exit.i.i7:     ; preds = %_ZN7QStringD2Ev.exit
  %31 = atomicrmw sub ptr %30, i32 1 seq_cst, align 4
  %.not.i.i8 = icmp eq i32 %31, 1
  br i1 %.not.i.i8, label %32, label %_ZN7QStringD2Ev.exit9

32:                                               ; preds = %_ZN17QArrayDataPointerIDsE5derefEv.exit.i.i7
  %33 = load ptr, ptr %2, align 8
  call void @_ZN10QArrayData10deallocateEPS_xx(ptr noundef %33, i64 noundef 2, i64 noundef 8) #31
  br label %_ZN7QStringD2Ev.exit9

_ZN7QStringD2Ev.exit9:                            ; preds = %_ZN7QStringD2Ev.exit, %_ZN17QArrayDataPointerIDsE5derefEv.exit.i.i7, %32
  call void @llvm.lifetime.end.p0(i64 24, ptr nonnull %2) #31
  ret void

34:                                               ; preds = %_ZN7QStringC2ERKS_.exit
  %35 = landingpad { ptr, i32 }
          cleanup
  %36 = load ptr, ptr %3, align 8
  %.not.i.i.i10 = icmp eq ptr %36, null
  br i1 %.not.i.i.i10, label %_ZN7QStringD2Ev.exit13, label %_ZN17QArrayDataPointerIDsE5derefEv.exit.i.i11

_ZN17QArrayDataPointerIDsE5derefEv.exit.i.i11:    ; preds = %34
  %37 = atomicrmw sub ptr %36, i32 1 seq_cst, align 4
  %.not.i.i12 = icmp eq i32 %37, 1
  br i1 %.not.i.i12, label %38, label %_ZN7QStringD2Ev.exit13

38:                                               ; preds = %_ZN17QArrayDataPointerIDsE5derefEv.exit.i.i11
  %39 = load ptr, ptr %3, align 8
  call void @_ZN10QArrayData10deallocateEPS_xx(ptr noundef %39, i64 noundef 2, i64 noundef 8) #31
  br label %_ZN7QStringD2Ev.exit13

_ZN7QStringD2Ev.exit13:                           ; preds = %34, %_ZN17QArrayDataPointerIDsE5derefEv.exit.i.i11, %38
  %40 = load ptr, ptr %2, align 8
  %.not.i.i.i14 = icmp eq ptr %40, null
  br i1 %.not.i.i.i14, label %_ZN7QStringD2Ev.exit17, label %_ZN17QArrayDataPointerIDsE5derefEv.exit.i.i15

_ZN17QArrayDataPointerIDsE5derefEv.exit.i.i15:    ; preds = %_ZN7QStringD2Ev.exit13
  %41 = atomicrmw sub ptr %40, i32 1 seq_cst, align 4
  %.not.i.i16 = icmp eq i32 %41, 1
  br i1 %.not.i.i16, label %42, label %_ZN7QStringD2Ev.exit17

42:                                               ; preds = %_ZN17QArrayDataPointerIDsE5derefEv.exit.i.i15
  %43 = load ptr, ptr %2, align 8
  call void @_ZN10QArrayData10deallocateEPS_xx(ptr noundef %43, i64 noundef 2, i64 noundef 8) #31
  br label %_ZN7QStringD2Ev.exit17

_ZN7QStringD2Ev.exit17:                           ; preds = %_ZN7QStringD2Ev.exit13, %_ZN17QArrayDataPointerIDsE5derefEv.exit.i.i15, %42
  call void @llvm.lifetime.end.p0(i64 24, ptr nonnull %2) #31
  resume { ptr, i32 } %35
}